; Function Attrs: mustprogress uwtable
define dso_local noundef zeroext i1 @_ZN3net12HpackDecoder23DecodeNextStringLiteralEPNS_16HpackInputStreamEbPN4base16BasicStringPieceINSt7__cxx1112basic_stringIcSt11char_traitsIcESaIcEEEEE(ptr noundef nonnull align 8 dereferenceable(480) %this, ptr noundef nonnull %input_stream, i1 noundef zeroext %is_key, ptr noundef %output) local_unnamed_addr #0 align 2 {
entry:
  %ref.tmp = alloca %"class.base::BasicStringPiece", align 8
  %call = tail call noundef zeroext i1 @_ZN3net16HpackInputStream21MatchPrefixAndConsumeENS_11HpackPrefixE(ptr noundef nonnull align 8 dereferenceable(33) %input_stream, i8 1, i64 1)
  br i1 %call, label %if.then, label %if.end

if.then:                                          ; preds = %entry
  %cond.v = select i1 %is_key, i64 384, i64 416
  %cond = getelementptr inbounds i8, ptr %this, i64 %cond.v
  %call2 = tail call noundef zeroext i1 @_ZN3net16HpackInputStream23DecodeNextHuffmanStringEPNSt7__cxx1112basic_stringIcSt11char_traitsIcESaIcEEE(ptr noundef nonnull align 8 dereferenceable(33) %input_stream, ptr noundef nonnull %cond)
  call void @_ZN4base16BasicStringPieceINSt7__cxx1112basic_stringIcSt11char_traitsIcESaIcEEEEC1ERKS6_(ptr noundef nonnull align 8 dereferenceable(16) %ref.tmp, ptr noundef nonnull align 8 dereferenceable(32) %cond)
  call void @llvm.memcpy.p0.p0.i64(ptr noundef nonnull align 8 dereferenceable(16) %output, ptr noundef nonnull align 8 dereferenceable(16) %ref.tmp, i64 16, i1 false)
  br label %return

if.end:                                           ; preds = %entry
  %call6 = tail call noundef zeroext i1 @_ZN3net16HpackInputStream21MatchPrefixAndConsumeENS_11HpackPrefixE(ptr noundef nonnull align 8 dereferenceable(33) %input_stream, i8 0, i64 1)
  br i1 %call6, label %if.then7, label %return

if.then7:                                         ; preds = %if.end
  %call8 = tail call noundef zeroext i1 @_ZN3net16HpackInputStream24DecodeNextIdentityStringEPN4base16BasicStringPieceINSt7__cxx1112basic_stringIcSt11char_traitsIcESaIcEEEEE(ptr noundef nonnull align 8 dereferenceable(33) %input_stream, ptr noundef %output)
  br label %return

return:                                           ; preds = %if.end, %if.then7, %if.then
  %retval.0 = phi i1 [ %call2, %if.then ], [ %call8, %if.then7 ], [ false, %if.end ]
  ret i1 %retval.0
}